target datalayout = "e-m:e-p270:32:32-p271:32:32-p272:64:64-i64:64-i128:128-f80:128-n8:16:32:64-S128"
target triple = "x86_64-unknown-linux-gnu"

%struct.OptsVisitor = type { %struct.Visitor, ptr, i32, ptr, i32, ptr, %union.anon, %union.anon, ptr }
%struct.Visitor = type { ptr, ptr, ptr, ptr, ptr, ptr, ptr, ptr, ptr, ptr, ptr, ptr, ptr, ptr, ptr, ptr, ptr, ptr, ptr, ptr, i32, %struct.CompatPolicy, ptr, ptr }
%struct.CompatPolicy = type { i8, i32, i8, i32, i8, i32, i8, i32 }
%union.anon = type { i64 }
%struct.QTailQLink = type { ptr, ptr }
%struct.QemuOpt = type { ptr, ptr, ptr, %union.anon.2, ptr, %union.anon.3 }
%union.anon.2 = type { i64 }
%union.anon.3 = type { %struct.QTailQLink }
%struct._GHashTableIter = type { ptr, ptr, ptr, i32, i32, ptr }

@.str.1 = private unnamed_addr constant [28 x i8] c"../qemu/qapi/opts-visitor.c\00", align 1
@__func__.opts_check_struct = private unnamed_addr constant [18 x i8] c"opts_check_struct\00", align 1
@.str.4 = private unnamed_addr constant [23 x i8] c"Invalid parameter '%s'\00", align 1

; Function Attrs: nounwind sspstrong uwtable
define internal ptr @to_ov(ptr noundef %v) #0 {
entry:
  %v.addr = alloca ptr, align 8
  %__mptr = alloca ptr, align 8
  %tmp = alloca ptr, align 8
  store ptr %v, ptr %v.addr, align 8
  %0 = load ptr, ptr %v.addr, align 8
  store ptr %0, ptr %__mptr, align 8
  %1 = load ptr, ptr %__mptr, align 8
  %add.ptr = getelementptr i8, ptr %1, i64 0
  store ptr %add.ptr, ptr %tmp, align 8
  %2 = load ptr, ptr %tmp, align 8
  ret ptr %2
}

; Function Attrs: nounwind sspstrong uwtable
define internal zeroext i1 @opts_check_struct(ptr noundef %v, ptr noundef %errp) #0 {
entry:
  %retval = alloca i1, align 1
  %v.addr = alloca ptr, align 8
  %errp.addr = alloca ptr, align 8
  %ov = alloca ptr, align 8
  %iter = alloca %struct._GHashTableIter, align 8
  %any = alloca ptr, align 8
  %first = alloca ptr, align 8
  store ptr %v, ptr %v.addr, align 8
  store ptr %errp, ptr %errp.addr, align 8
  %0 = load ptr, ptr %v.addr, align 8
  %call = call ptr @to_ov(ptr noundef %0)
  store ptr %call, ptr %ov, align 8
  %1 = load ptr, ptr %ov, align 8
  %depth = getelementptr inbounds %struct.OptsVisitor, ptr %1, i32 0, i32 2
  %2 = load i32, ptr %depth, align 8
  %cmp = icmp ugt i32 %2, 1
  br i1 %cmp, label %if.then, label %if.end

if.then:                                          ; preds = %entry
  store i1 true, ptr %retval, align 1
  br label %return

if.end:                                           ; preds = %entry
  %3 = load ptr, ptr %ov, align 8
  %unprocessed_opts = getelementptr inbounds %struct.OptsVisitor, ptr %3, i32 0, i32 3
  %4 = load ptr, ptr %unprocessed_opts, align 8
  call void @g_hash_table_iter_init(ptr noundef %iter, ptr noundef %4)
  %call1 = call i32 @g_hash_table_iter_next(ptr noundef %iter, ptr noundef null, ptr noundef %any)
  %tobool = icmp ne i32 %call1, 0
  br i1 %tobool, label %if.then2, label %if.end4

if.then2:                                         ; preds = %if.end
  %5 = load ptr, ptr %any, align 8
  %call3 = call ptr @g_queue_peek_head(ptr noundef %5)
  store ptr %call3, ptr %first, align 8
  %6 = load ptr, ptr %errp.addr, align 8
  %7 = load ptr, ptr %first, align 8
  %name = getelementptr inbounds %struct.QemuOpt, ptr %7, i32 0, i32 0
  %8 = load ptr, ptr %name, align 8
  call void (ptr, ptr, i32, ptr, ptr, ...) @error_setg_internal(ptr noundef %6, ptr noundef @.str.1, i32 noundef 187, ptr noundef @__func__.opts_check_struct, ptr noundef @.str.4, ptr noundef %8)
  store i1 false, ptr %retval, align 1
  br label %return

if.end4:                                          ; preds = %if.end
  store i1 true, ptr %retval, align 1
  br label %return

return:                                           ; preds = %if.end4, %if.then2, %if.then
  %9 = load i1, ptr %retval, align 1
  ret i1 %9
}