; Function Attrs: nounwind sspstrong uwtable
define internal noundef zeroext i1 @opts_check_struct(ptr noundef readonly captures(none) %v, ptr noundef %errp) #0 {
entry:
  %iter = alloca %struct._GHashTableIter, align 8
  %any = alloca ptr, align 8
  %depth = getelementptr inbounds nuw i8, ptr %v, i64 224
  %0 = load i32, ptr %depth, align 8
  %cmp = icmp ugt i32 %0, 1
  br i1 %cmp, label %return, label %if.end

if.end:                                           ; preds = %entry
  %unprocessed_opts = getelementptr inbounds nuw i8, ptr %v, i64 232
  %1 = load ptr, ptr %unprocessed_opts, align 8
  call void @g_hash_table_iter_init(ptr noundef nonnull %iter, ptr noundef %1) #10
  %call1 = call i32 @g_hash_table_iter_next(ptr noundef nonnull %iter, ptr noundef null, ptr noundef nonnull %any) #10
  %tobool.not = icmp eq i32 %call1, 0
  br i1 %tobool.not, label %return, label %if.then2

if.then2:                                         ; preds = %if.end
  %2 = load ptr, ptr %any, align 8
  %call3 = call ptr @g_queue_peek_head(ptr noundef %2) #10
  %3 = load ptr, ptr %call3, align 8
  call void (ptr, ptr, i32, ptr, ptr, ...) @error_setg_internal(ptr noundef %errp, ptr noundef nonnull @.str.1, i32 noundef 187, ptr noundef nonnull @__func__.opts_check_struct, ptr noundef nonnull @.str.4, ptr noundef %3) #10
  br label %return

return:                                           ; preds = %if.end, %entry, %if.then2
  %retval.0 = phi i1 [ false, %if.then2 ], [ true, %entry ], [ true, %if.end ]
  ret i1 %retval.0
}